; Function Attrs: nounwind uwtable
define void @lv_scale_set_draw_ticks_on_top(ptr noundef %0, i1 noundef zeroext %1) local_unnamed_addr #0 {
  %3 = getelementptr inbounds nuw i8, ptr %0, i64 108
  %4 = load i64, ptr %3, align 4
  %5 = select i1 %1, i64 4294967296, i64 0
  %6 = and i64 %4, -4294967297
  %7 = or disjoint i64 %6, %5
  store i64 %7, ptr %3, align 4
  tail call void @lv_obj_invalidate(ptr noundef %0) #9
  ret void
}